Certificate:
    Data:
        Version: 3 (0x2)
        Serial Number: 2 (0x2)
        Signature Algorithm: ecdsa-with-SHA256
        Issuer: CN=vpn.ethanaldrich.net
        Validity
            Not Before: Jan 15 19:29:18 2020 GMT
            Not After : Jan 12 19:29:18 2030 GMT
        Subject: CN=phone
        Subject Public Key Info:
            Public Key Algorithm: id-ecPublicKey
                Public-Key: (384 bit)
                pub:
                    04:77:82:91:2b:24:0f:ed:65:79:27:a2:25:bc:a8:
                    55:86:f8:99:c2:62:c7:f3:a5:29:b5:10:a2:60:3c:
                    22:a3:df:b0:c3:6e:76:dd:8e:7f:4b:b2:2a:d8:bf:
                    70:38:73:5b:ad:9c:7f:45:a3:08:37:99:93:c8:5e:
                    63:42:aa:d6:71:ee:c6:e6:a8:f0:f8:99:4e:a3:6f:
                    b3:8c:38:85:e0:95:19:0d:ff:41:9b:14:34:fc:fb:
                    55:2c:8c:dc:ca:e4:41
                ASN1 OID: secp384r1
                NIST CURVE: P-384
        X509v3 extensions:
            X509v3 Basic Constraints: 
                CA:FALSE
            X509v3 Subject Key Identifier: 
                1A:A2:C3:0C:25:18:44:B3:7B:02:09:DC:CC:1A:F2:6B:0F:C6:7F:46
            X509v3 Authority Key Identifier: 
                keyid:99:9B:43:64:31:11:E8:12:D3:9A:A8:C9:22:69:56:26:16:D5:C0:0F
                DirName:/CN=vpn.ethanaldrich.net
                serial:4E:24:83:7E:8C:DF:2F:39:D2:AD:F8:E8:14:66:4A:9A:98:8C:FF:08

            X509v3 Extended Key Usage: 
                TLS Web Server Authentication, TLS Web Client Authentication, ipsec Internet Key Exchange
            X509v3 Key Usage: 
                Digital Signature, Key Encipherment
            X509v3 Subject Alternative Name: 
                DNS:phone
    Signature Algorithm: ecdsa-with-SHA256
         30:64:02:30:32:52:24:b3:65:df:11:f3:8c:24:5c:b7:54:33:
         f4:a2:a0:36:7d:e1:da:a2:5c:2c:81:ab:e9:ec:f3:4b:41:a5:
         de:46:d2:0d:8d:14:30:60:a8:ba:f0:47:a5:82:0c:c6:02:30:
         69:69:94:b6:89:3e:df:bd:2a:3b:35:69:0e:10:74:77:03:83:
         ea:aa:e7:f2:93:c2:b0:13:c8:7a:b1:2f:9f:89:cb:88:5b:79:
         9c:5e:14:d3:99:f0:68:7f:91:e1:f1:17
-----BEGIN CERTIFICATE-----
MIICLDCCAbOgAwIBAgIBAjAKBggqhkjOPQQDAjAfMR0wGwYDVQQDDBR2cG4uZXRo
YW5hbGRyaWNoLm5ldDAeFw0yMDAxMTUxOTI5MThaFw0zMDAxMTIxOTI5MThaMBAx
DjAMBgNVBAMMBXBob25lMHYwEAYHKoZIzj0CAQYFK4EEACIDYgAEd4KRKyQP7WV5
J6IlvKhVhviZwmLH86UptRCiYDwio9+ww2523Y5/S7Iq2L9wOHNbrZx/RaMIN5mT
yF5jQqrWce7G5qjw+JlOo2+zjDiF4JUZDf9BmxQ0/PtVLIzcyuRBo4HRMIHOMAkG
A1UdEwQCMAAwHQYDVR0OBBYEFBqiwwwlGESzewIJ3Mwa8msPxn9GMFoGA1UdIwRT
MFGAFJmbQ2QxEegS05qoySJpViYW1cAPoSOkITAfMR0wGwYDVQQDDBR2cG4uZXRo
YW5hbGRyaWNoLm5ldIIUTiSDfozfLznSrfjoFGZKmpiM/wgwJwYDVR0lBCAwHgYI
KwYBBQUHAwEGCCsGAQUFBwMCBggrBgEFBQcDETALBgNVHQ8EBAMCBaAwEAYDVR0R
BAkwB4IFcGhvbmUwCgYIKoZIzj0EAwIDZwAwZAIwMlIks2XfEfOMJFy3VDP0oqA2
feHaolwsgavp7PNLQaXeRtINjRQwYKi68EelggzGAjBpaZS2iT7fvSo7NWkOEHR3
A4Pqqufyk8KwE8h6sS+ficuIW3mcXhTTmfBof5Hh8Rc=
-----END CERTIFICATE-----
