Certificate:
    Data:
        Version: 3 (0x2)
        Serial Number: 7 (0x7)
        Signature Algorithm: ecdsa-with-SHA256
        Issuer: CN=vpn.ethanaldrich.net
        Validity
            Not Before: Jan 15 19:38:49 2020 GMT
            Not After : Jan 12 19:38:49 2030 GMT
        Subject: CN=billymyers
        Subject Public Key Info:
            Public Key Algorithm: id-ecPublicKey
                Public-Key: (384 bit)
                pub:
                    04:5f:f8:a2:7a:78:4e:0f:e4:e2:5c:5c:36:ce:cb:
                    c0:71:5e:8d:c4:e2:7c:39:61:40:38:0e:df:e0:97:
                    f9:90:73:55:a7:3a:41:07:cf:56:1b:e9:5f:f9:ec:
                    96:8b:bb:d5:40:53:70:7d:1a:aa:9b:00:4d:f6:d4:
                    5f:fe:c9:25:14:56:82:56:55:bd:b2:eb:8e:98:40:
                    1b:08:6b:56:36:19:14:d5:32:6f:49:55:12:01:d0:
                    b0:18:92:f4:12:7b:e5
                ASN1 OID: secp384r1
                NIST CURVE: P-384
        X509v3 extensions:
            X509v3 Basic Constraints: 
                CA:FALSE
            X509v3 Subject Key Identifier: 
                67:DD:CF:9C:76:F5:A8:2F:B7:98:2A:80:D0:83:BE:D5:07:D3:CA:63
            X509v3 Authority Key Identifier: 
                keyid:99:9B:43:64:31:11:E8:12:D3:9A:A8:C9:22:69:56:26:16:D5:C0:0F
                DirName:/CN=vpn.ethanaldrich.net
                serial:4E:24:83:7E:8C:DF:2F:39:D2:AD:F8:E8:14:66:4A:9A:98:8C:FF:08

            X509v3 Extended Key Usage: 
                TLS Web Server Authentication, TLS Web Client Authentication, ipsec Internet Key Exchange
            X509v3 Key Usage: 
                Digital Signature, Key Encipherment
            X509v3 Subject Alternative Name: 
                DNS:billymyers
    Signature Algorithm: ecdsa-with-SHA256
         30:65:02:30:6b:cd:46:0b:2b:af:59:e5:fa:e3:25:5e:be:ca:
         af:94:4d:09:12:81:e3:97:5f:de:d0:7d:c6:1d:f9:72:77:9b:
         b4:85:a4:d2:d1:9b:bc:a6:68:4f:0e:af:b3:7d:ed:80:02:31:
         00:97:38:86:0b:f2:9e:16:4c:42:76:89:83:cc:84:91:aa:08:
         d3:ff:81:de:ca:93:c5:20:53:e8:a5:3a:23:37:20:f3:de:7b:
         61:34:88:0e:e8:c6:4b:e2:01:33:68:ab:04
-----BEGIN CERTIFICATE-----
MIICNzCCAb2gAwIBAgIBBzAKBggqhkjOPQQDAjAfMR0wGwYDVQQDDBR2cG4uZXRo
YW5hbGRyaWNoLm5ldDAeFw0yMDAxMTUxOTM4NDlaFw0zMDAxMTIxOTM4NDlaMBUx
EzARBgNVBAMMCmJpbGx5bXllcnMwdjAQBgcqhkjOPQIBBgUrgQQAIgNiAARf+KJ6
eE4P5OJcXDbOy8BxXo3E4nw5YUA4Dt/gl/mQc1WnOkEHz1Yb6V/57JaLu9VAU3B9
GqqbAE321F/+ySUUVoJWVb2y646YQBsIa1Y2GRTVMm9JVRIB0LAYkvQSe+WjgdYw
gdMwCQYDVR0TBAIwADAdBgNVHQ4EFgQUZ93PnHb1qC+3mCqA0IO+1QfTymMwWgYD
VR0jBFMwUYAUmZtDZDER6BLTmqjJImlWJhbVwA+hI6QhMB8xHTAbBgNVBAMMFHZw
bi5ldGhhbmFsZHJpY2gubmV0ghROJIN+jN8vOdKt+OgUZkqamIz/CDAnBgNVHSUE
IDAeBggrBgEFBQcDAQYIKwYBBQUHAwIGCCsGAQUFBwMRMAsGA1UdDwQEAwIFoDAV
BgNVHREEDjAMggpiaWxseW15ZXJzMAoGCCqGSM49BAMCA2gAMGUCMGvNRgsrr1nl
+uMlXr7Kr5RNCRKB45df3tB9xh35cnebtIWk0tGbvKZoTw6vs33tgAIxAJc4hgvy
nhZMQnaJg8yEkaoI0/+B3sqTxSBT6KU6Izcg8957YTSIDujGS+IBM2irBA==
-----END CERTIFICATE-----
