Certificate:
    Data:
        Version: 3 (0x2)
        Serial Number: 8 (0x8)
        Signature Algorithm: ecdsa-with-SHA256
        Issuer: CN=vpn.ethanaldrich.net
        Validity
            Not Before: Jan 15 19:38:50 2020 GMT
            Not After : Jan 12 19:38:50 2030 GMT
        Subject: CN=jaworth
        Subject Public Key Info:
            Public Key Algorithm: id-ecPublicKey
                Public-Key: (384 bit)
                pub:
                    04:61:17:48:1f:4a:4e:d3:6d:2c:99:e6:87:de:ae:
                    e5:5a:b1:1b:3c:8e:30:04:47:3c:2a:3c:0b:97:bd:
                    d4:87:49:6b:5f:ac:f2:87:46:a0:4e:fd:d4:9c:67:
                    fd:e1:5b:5a:26:00:93:7f:15:a5:a6:01:48:f9:22:
                    39:7d:5c:ce:54:9f:a6:f3:05:38:9e:a3:b9:04:4d:
                    76:2a:ee:30:36:7e:0c:37:7e:17:d7:5d:2c:ee:bb:
                    87:f4:0c:ec:92:89:d4
                ASN1 OID: secp384r1
                NIST CURVE: P-384
        X509v3 extensions:
            X509v3 Basic Constraints: 
                CA:FALSE
            X509v3 Subject Key Identifier: 
                79:93:52:04:D3:86:07:FB:09:2D:A7:79:5B:76:C2:25:5F:19:BD:DB
            X509v3 Authority Key Identifier: 
                keyid:99:9B:43:64:31:11:E8:12:D3:9A:A8:C9:22:69:56:26:16:D5:C0:0F
                DirName:/CN=vpn.ethanaldrich.net
                serial:4E:24:83:7E:8C:DF:2F:39:D2:AD:F8:E8:14:66:4A:9A:98:8C:FF:08

            X509v3 Extended Key Usage: 
                TLS Web Server Authentication, TLS Web Client Authentication, ipsec Internet Key Exchange
            X509v3 Key Usage: 
                Digital Signature, Key Encipherment
            X509v3 Subject Alternative Name: 
                DNS:jaworth
    Signature Algorithm: ecdsa-with-SHA256
         30:65:02:30:04:d0:af:c5:ce:9f:d8:2b:bd:0b:3f:62:f4:a6:
         51:69:f2:6b:43:dc:62:89:ae:ff:03:15:8c:d6:73:ce:d5:9b:
         6b:eb:be:98:5a:fa:04:c6:0c:a1:15:84:d3:56:92:e8:02:31:
         00:f9:55:86:ab:6c:ed:58:25:a9:0a:89:d7:ed:f2:2b:4c:5b:
         8c:7a:00:eb:10:64:f0:75:ab:9c:91:de:b9:c9:6e:f2:41:6b:
         48:9e:16:8e:34:10:f5:09:e0:4b:b4:18:e6
-----BEGIN CERTIFICATE-----
MIICMTCCAbegAwIBAgIBCDAKBggqhkjOPQQDAjAfMR0wGwYDVQQDDBR2cG4uZXRo
YW5hbGRyaWNoLm5ldDAeFw0yMDAxMTUxOTM4NTBaFw0zMDAxMTIxOTM4NTBaMBIx
EDAOBgNVBAMMB2phd29ydGgwdjAQBgcqhkjOPQIBBgUrgQQAIgNiAARhF0gfSk7T
bSyZ5oferuVasRs8jjAERzwqPAuXvdSHSWtfrPKHRqBO/dScZ/3hW1omAJN/FaWm
AUj5Ijl9XM5Un6bzBTieo7kETXYq7jA2fgw3fhfXXSzuu4f0DOySidSjgdMwgdAw
CQYDVR0TBAIwADAdBgNVHQ4EFgQUeZNSBNOGB/sJLad5W3bCJV8ZvdswWgYDVR0j
BFMwUYAUmZtDZDER6BLTmqjJImlWJhbVwA+hI6QhMB8xHTAbBgNVBAMMFHZwbi5l
dGhhbmFsZHJpY2gubmV0ghROJIN+jN8vOdKt+OgUZkqamIz/CDAnBgNVHSUEIDAe
BggrBgEFBQcDAQYIKwYBBQUHAwIGCCsGAQUFBwMRMAsGA1UdDwQEAwIFoDASBgNV
HREECzAJggdqYXdvcnRoMAoGCCqGSM49BAMCA2gAMGUCMATQr8XOn9grvQs/YvSm
UWnya0PcYomu/wMVjNZzztWba+u+mFr6BMYMoRWE01aS6AIxAPlVhqts7VglqQqJ
1+3yK0xbjHoA6xBk8HWrnJHeuclu8kFrSJ4WjjQQ9QngS7QY5g==
-----END CERTIFICATE-----
